; ModuleID = '21/24.c'
source_filename = "21/24.c"
target datalayout = "e-m:e-p270:32:32-p271:32:32-p272:64:64-i64:64-f80:128-n8:16:32:64-S128"
target triple = "x86_64-pc-linux-gnu"

@.str = private unnamed_addr constant [3 x i8] c"%d\00", align 1
@.str.1 = private unnamed_addr constant [6 x i8] c"%d,%d\00", align 1

; Function Attrs: noinline nounwind uwtable
define dso_local void @main() #0 {
  %1 = alloca [300 x i32], align 16
  %2 = alloca i32, align 4
  %3 = alloca i32, align 4
  %4 = alloca i32, align 4
  %5 = alloca i32, align 4
  %6 = alloca i32, align 4
  %7 = alloca float, align 4
  %8 = alloca float, align 4
  %9 = alloca float, align 4
  store i32 0, i32* %5, align 4
  %10 = call i32 (i8*, ...) @__isoc99_scanf(i8* getelementptr inbounds ([3 x i8], [3 x i8]* @.str, i64 0, i64 0), i32* %4)
  store i32 0, i32* %6, align 4
  br label %11

11:                                               ; preds = %26, %0
  %12 = load i32, i32* %6, align 4
  %13 = load i32, i32* %4, align 4
  %14 = icmp slt i32 %12, %13
  br i1 %14, label %15, label %29

15:                                               ; preds = %11
  %16 = load i32, i32* %6, align 4
  %17 = sext i32 %16 to i64
  %18 = getelementptr inbounds [300 x i32], [300 x i32]* %1, i64 0, i64 %17
  %19 = call i32 (i8*, ...) @__isoc99_scanf(i8* getelementptr inbounds ([3 x i8], [3 x i8]* @.str, i64 0, i64 0), i32* %18)
  %20 = load i32, i32* %5, align 4
  %21 = load i32, i32* %6, align 4
  %22 = sext i32 %21 to i64
  %23 = getelementptr inbounds [300 x i32], [300 x i32]* %1, i64 0, i64 %22
  %24 = load i32, i32* %23, align 4
  %25 = add nsw i32 %20, %24
  store i32 %25, i32* %5, align 4
  br label %26

26:                                               ; preds = %15
  %27 = load i32, i32* %6, align 4
  %28 = add nsw i32 %27, 1
  store i32 %28, i32* %6, align 4
  br label %11

29:                                               ; preds = %11
  %30 = load i32, i32* %5, align 4
  %31 = sitofp i32 %30 to float
  %32 = load i32, i32* %4, align 4
  %33 = sitofp i32 %32 to float
  %34 = fdiv float %31, %33
  store float %34, float* %7, align 4
  %35 = getelementptr inbounds [300 x i32], [300 x i32]* %1, i64 0, i64 0
  %36 = load i32, i32* %35, align 16
  store i32 %36, i32* %2, align 4
  %37 = getelementptr inbounds [300 x i32], [300 x i32]* %1, i64 0, i64 0
  %38 = load i32, i32* %37, align 16
  store i32 %38, i32* %3, align 4
  store i32 1, i32* %6, align 4
  br label %39

39:                                               ; preds = %69, %29
  %40 = load i32, i32* %6, align 4
  %41 = load i32, i32* %4, align 4
  %42 = icmp slt i32 %40, %41
  br i1 %42, label %43, label %72

43:                                               ; preds = %39
  %44 = load i32, i32* %6, align 4
  %45 = sext i32 %44 to i64
  %46 = getelementptr inbounds [300 x i32], [300 x i32]* %1, i64 0, i64 %45
  %47 = load i32, i32* %46, align 4
  %48 = load i32, i32* %2, align 4
  %49 = icmp sgt i32 %47, %48
  br i1 %49, label %50, label %55

50:                                               ; preds = %43
  %51 = load i32, i32* %6, align 4
  %52 = sext i32 %51 to i64
  %53 = getelementptr inbounds [300 x i32], [300 x i32]* %1, i64 0, i64 %52
  %54 = load i32, i32* %53, align 4
  store i32 %54, i32* %2, align 4
  br label %68

55:                                               ; preds = %43
  %56 = load i32, i32* %6, align 4
  %57 = sext i32 %56 to i64
  %58 = getelementptr inbounds [300 x i32], [300 x i32]* %1, i64 0, i64 %57
  %59 = load i32, i32* %58, align 4
  %60 = load i32, i32* %3, align 4
  %61 = icmp slt i32 %59, %60
  br i1 %61, label %62, label %67

62:                                               ; preds = %55
  %63 = load i32, i32* %6, align 4
  %64 = sext i32 %63 to i64
  %65 = getelementptr inbounds [300 x i32], [300 x i32]* %1, i64 0, i64 %64
  %66 = load i32, i32* %65, align 4
  store i32 %66, i32* %3, align 4
  br label %67

67:                                               ; preds = %62, %55
  br label %68

68:                                               ; preds = %67, %50
  br label %69

69:                                               ; preds = %68
  %70 = load i32, i32* %6, align 4
  %71 = add nsw i32 %70, 1
  store i32 %71, i32* %6, align 4
  br label %39

72:                                               ; preds = %39
  %73 = load i32, i32* %2, align 4
  %74 = sitofp i32 %73 to float
  %75 = load float, float* %7, align 4
  %76 = fsub float %74, %75
  store float %76, float* %8, align 4
  %77 = load float, float* %7, align 4
  %78 = load i32, i32* %3, align 4
  %79 = sitofp i32 %78 to float
  %80 = fsub float %77, %79
  store float %80, float* %9, align 4
  %81 = load float, float* %8, align 4
  %82 = load float, float* %9, align 4
  %83 = fcmp oeq float %81, %82
  br i1 %83, label %84, label %88

84:                                               ; preds = %72
  %85 = load i32, i32* %3, align 4
  %86 = load i32, i32* %2, align 4
  %87 = call i32 (i8*, ...) @printf(i8* getelementptr inbounds ([6 x i8], [6 x i8]* @.str.1, i64 0, i64 0), i32 %85, i32 %86)
  br label %99

88:                                               ; preds = %72
  %89 = load float, float* %8, align 4
  %90 = load float, float* %9, align 4
  %91 = fcmp ogt float %89, %90
  br i1 %91, label %92, label %94

92:                                               ; preds = %88
  %93 = load i32, i32* %2, align 4
  br label %96

94:                                               ; preds = %88
  %95 = load i32, i32* %3, align 4
  br label %96

96:                                               ; preds = %94, %92
  %97 = phi i32 [ %93, %92 ], [ %95, %94 ]
  %98 = call i32 (i8*, ...) @printf(i8* getelementptr inbounds ([3 x i8], [3 x i8]* @.str, i64 0, i64 0), i32 %97)
  br label %99

99:                                               ; preds = %96, %84
  ret void
}

declare dso_local i32 @__isoc99_scanf(i8*, ...) #1

declare dso_local i32 @printf(i8*, ...) #1


!llvm.module.flags = !{!0}
!llvm.ident = !{!1}

!0 = !{i32 1, !"wchar_size", i32 4}
!1 = !{!"clang version 10.0.0-4ubuntu1 "}
